; Function Attrs: mustprogress uwtable
define void @_ZN3nix11restorePathERKNSt7__cxx1112basic_stringIcSt11char_traitsIcESaIcEEERNS_6SourceE(ptr noundef nonnull align 8 dereferenceable(32) %0, ptr noundef nonnull align 8 dereferenceable(8) %1) local_unnamed_addr #4 personality ptr @__gxx_personality_v0 {
  %3 = alloca %"class.std::allocator.5", align 1
  %4 = alloca %"struct.nix::RestoreSink", align 8
  store ptr getelementptr inbounds ({ [7 x ptr] }, ptr @_ZTVN3nix11RestoreSinkE, i64 0, i32 0, i64 2), ptr %4, align 8
  %5 = getelementptr inbounds i8, ptr %4, i64 8
  call void @llvm.lifetime.start.p0(i64 1, ptr nonnull %3)
  %6 = getelementptr inbounds i8, ptr %4, i64 24
  call void @_ZNSaIcEC1Ev(ptr noundef nonnull align 1 dereferenceable(1) %3) #29
  call void @_ZNSaIcEC2ERKS_(ptr noundef nonnull align 1 dereferenceable(1) %5, ptr noundef nonnull align 1 dereferenceable(1) %3) #29
  store ptr %6, ptr %5, align 8
  call void @_ZNSaIcED1Ev(ptr noundef nonnull align 1 dereferenceable(1) %3) #29
  %7 = getelementptr inbounds i8, ptr %4, i64 16
  store i64 0, ptr %7, align 8
  %8 = load ptr, ptr %5, align 8
  store i8 0, ptr %8, align 1
  call void @llvm.lifetime.end.p0(i64 1, ptr nonnull %3)
  invoke void @_ZNSt7__cxx1112basic_stringIcSt11char_traitsIcESaIcEE9_M_assignERKS4_(ptr noundef nonnull align 8 dereferenceable(32) %5, ptr noundef nonnull align 8 dereferenceable(32) %0)
          to label %_ZNSt7__cxx1112basic_stringIcSt11char_traitsIcESaIcEEaSERKS4_.exit unwind label %14

_ZNSt7__cxx1112basic_stringIcSt11char_traitsIcESaIcEEaSERKS4_.exit: ; preds = %2
  invoke void @_ZN3nix9parseDumpERNS_20FileSystemObjectSinkERNS_6SourceE(ptr noundef nonnull align 8 dereferenceable(8) %4, ptr noundef nonnull align 8 dereferenceable(8) %1)
          to label %9 unwind label %14

9:                                                ; preds = %_ZNSt7__cxx1112basic_stringIcSt11char_traitsIcESaIcEEaSERKS4_.exit
  store ptr getelementptr inbounds ({ [7 x ptr] }, ptr @_ZTVN3nix11RestoreSinkE, i64 0, i32 0, i64 2), ptr %4, align 8
  %10 = load ptr, ptr %5, align 8
  %11 = icmp eq ptr %10, %6
  br i1 %11, label %_ZNKSt7__cxx1112basic_stringIcSt11char_traitsIcESaIcEE11_M_is_localEv.exit.thread.i.i.i, label %_ZNKSt7__cxx1112basic_stringIcSt11char_traitsIcESaIcEE11_M_is_localEv.exit.i.i.i

_ZNKSt7__cxx1112basic_stringIcSt11char_traitsIcESaIcEE11_M_is_localEv.exit.thread.i.i.i: ; preds = %9
  %12 = load i64, ptr %7, align 8
  %13 = icmp ult i64 %12, 16
  call void @llvm.assume(i1 %13)
  br label %_ZN3nix11RestoreSinkD2Ev.exit

_ZNKSt7__cxx1112basic_stringIcSt11char_traitsIcESaIcEE11_M_is_localEv.exit.i.i.i: ; preds = %9
  call void @_ZdlPv(ptr noundef %10) #31
  br label %_ZN3nix11RestoreSinkD2Ev.exit

_ZN3nix11RestoreSinkD2Ev.exit:                    ; preds = %_ZNKSt7__cxx1112basic_stringIcSt11char_traitsIcESaIcEE11_M_is_localEv.exit.thread.i.i.i, %_ZNKSt7__cxx1112basic_stringIcSt11char_traitsIcESaIcEE11_M_is_localEv.exit.i.i.i
  call void @_ZNSaIcED2Ev(ptr noundef nonnull align 1 dereferenceable(1) %5) #29
  ret void

14:                                               ; preds = %2, %_ZNSt7__cxx1112basic_stringIcSt11char_traitsIcESaIcEEaSERKS4_.exit
  %15 = landingpad { ptr, i32 }
          cleanup
  call void @_ZN3nix11RestoreSinkD2Ev(ptr noundef nonnull align 8 dereferenceable(40) %4) #29
  resume { ptr, i32 } %15
}